; Function Attrs: inlinehint mustprogress nounwind uwtable
define internal fastcc void @_ZSt8_DestroyIPN12_GLOBAL__N_112RdPortConfigEEvT_S3_(ptr noundef readonly captures(address) %0, ptr noundef readnone captures(address) %1) unnamed_addr #4 personality ptr @__gxx_personality_v0 {
  %.not5.i = icmp eq ptr %0, %1
  br i1 %.not5.i, label %_ZNSt12_Destroy_auxILb0EE9__destroyIPN12_GLOBAL__N_112RdPortConfigEEEvT_S5_.exit, label %.lr.ph.i

.lr.ph.i:                                         ; preds = %2, %_ZSt8_DestroyIN12_GLOBAL__N_112RdPortConfigEEvPT_.exit.i
  %.06.i = phi ptr [ %9, %_ZSt8_DestroyIN12_GLOBAL__N_112RdPortConfigEEvPT_.exit.i ], [ %0, %2 ]
  %3 = getelementptr i8, ptr %.06.i, i64 32
  %.0.val.i = load ptr, ptr %3, align 8, !tbaa !60
  %.not.i.i.i.i.i.i = icmp eq ptr %.0.val.i, null
  br i1 %.not.i.i.i.i.i.i, label %_ZSt8_DestroyIN12_GLOBAL__N_112RdPortConfigEEvPT_.exit.i, label %4

4:                                                ; preds = %.lr.ph.i
  %5 = getelementptr i8, ptr %.06.i, i64 48
  %.0.val4.i = load ptr, ptr %5, align 8
  %6 = ptrtoint ptr %.0.val4.i to i64
  %7 = ptrtoint ptr %.0.val.i to i64
  %8 = sub i64 %6, %7
  tail call void @_ZdlPvm(ptr noundef nonnull %.0.val.i, i64 noundef %8) #31
  br label %_ZSt8_DestroyIN12_GLOBAL__N_112RdPortConfigEEvPT_.exit.i

_ZSt8_DestroyIN12_GLOBAL__N_112RdPortConfigEEvPT_.exit.i: ; preds = %4, %.lr.ph.i
  %9 = getelementptr inbounds nuw i8, ptr %.06.i, i64 56
  %.not.i = icmp eq ptr %9, %1
  br i1 %.not.i, label %_ZNSt12_Destroy_auxILb0EE9__destroyIPN12_GLOBAL__N_112RdPortConfigEEEvT_S5_.exit, label %.lr.ph.i, !llvm.loop !380

_ZNSt12_Destroy_auxILb0EE9__destroyIPN12_GLOBAL__N_112RdPortConfigEEEvT_S5_.exit: ; preds = %_ZSt8_DestroyIN12_GLOBAL__N_112RdPortConfigEEvPT_.exit.i, %2
  ret void
}